; Function Attrs: nofree nounwind memory(readwrite, argmem: read) uwtable
define noalias noundef ptr @Gia_WritePacking(ptr noundef readonly captures(none) %0) local_unnamed_addr #6 {
  %2 = getelementptr i8, ptr %0, i64 4
  %.val13 = load i32, ptr %2, align 4, !tbaa !56
  %3 = shl nsw i32 %.val13, 2
  %4 = sext i32 %3 to i64
  %5 = tail call noalias ptr @malloc(i64 noundef %4) #16
  %6 = icmp sgt i32 %.val13, 0
  br i1 %6, label %.lr.ph, label %.critedge

.lr.ph:                                           ; preds = %1
  %7 = getelementptr i8, ptr %0, i64 8
  %.val = load ptr, ptr %7, align 8, !tbaa !52
  %wide.trip.count = zext nneg i32 %.val13 to i64
  br label %8

8:                                                ; preds = %.lr.ph, %Gia_AigerWriteInt.exit
  %indvars.iv = phi i64 [ 0, %.lr.ph ], [ %indvars.iv.next, %Gia_AigerWriteInt.exit ]
  %9 = getelementptr inbounds nuw i32, ptr %.val, i64 %indvars.iv
  %10 = load i32, ptr %9, align 4, !tbaa !37
  %11 = shl nsw i64 %indvars.iv, 2
  %12 = getelementptr inbounds nuw i8, ptr %5, i64 %11
  br label %13

13:                                               ; preds = %13, %8
  %.06.i = phi i32 [ 3, %8 ], [ %18, %13 ]
  %.045.i = phi ptr [ %12, %8 ], [ %17, %13 ]
  %14 = shl nsw i32 %.06.i, 3
  %15 = ashr i32 %10, %14
  %16 = trunc i32 %15 to i8
  %17 = getelementptr inbounds nuw i8, ptr %.045.i, i64 1
  store i8 %16, ptr %.045.i, align 1, !tbaa !8
  %18 = add nsw i32 %.06.i, -1
  %.not.i = icmp eq i32 %.06.i, 0
  br i1 %.not.i, label %Gia_AigerWriteInt.exit, label %13, !llvm.loop !44

Gia_AigerWriteInt.exit:                           ; preds = %13
  %indvars.iv.next = add nuw nsw i64 %indvars.iv, 1
  %exitcond.not = icmp eq i64 %indvars.iv.next, %wide.trip.count
  br i1 %exitcond.not, label %.critedge, label %8, !llvm.loop !75

.critedge:                                        ; preds = %Gia_AigerWriteInt.exit, %1
  %19 = tail call noalias dereferenceable_or_null(16) ptr @malloc(i64 noundef 16) #16
  %20 = getelementptr inbounds nuw i8, ptr %19, i64 4
  store i32 %3, ptr %20, align 4, !tbaa !45
  store i32 %3, ptr %19, align 8, !tbaa !47
  %21 = getelementptr inbounds nuw i8, ptr %19, i64 8
  store ptr %5, ptr %21, align 8, !tbaa !48
  ret ptr %19
}